(lp0
(lp1
(cdjango.db.models.base
model_unpickle
p2
((S'bus'
p3
S'Bus'
p4
tp5
tp6
Rp7
(dp8
S'no_of_seats'
p9
L43L
sS'_django_version'
p10
S'1.11.12'
p11
sS'bus_number'
p12
L1L
sS'created_at'
p13
cdatetime
datetime
p14
(S'\x07\xe0\x03\x0b\x13#3\x05nM'
p15
cpytz
_UTC
p16
(tRp17
tp18
Rp19
sS'is_active'
p20
I01
sS'updated_at'
p21
g14
(S'\x07\xe0\x03\x0e\x12\x12\x19\n\xd7\xc7'
p22
g17
tp23
Rp24
sS'image'
p25
Vimages/bus/main/volvo1.jpg
p26
sS'_state'
p27
ccopy_reg
_reconstructor
p28
(cdjango.db.models.base
ModelState
p29
c__builtin__
object
p30
Ntp31
Rp32
(dp33
S'adding'
p34
I00
sS'db'
p35
S'default'
p36
sbsS'type'
p37
VAC
p38
sS'slug'
p39
Vniki-bus
p40
sbg2
((g3
S'Bus_trip'
p41
tp42
tp43
Rp44
(dp45
S'fare'
p46
cdecimal
Decimal
p47
(S'110.00'
p48
tp49
Rp50
sS'bus_number_id'
p51
L1L
sS'depature_time'
p52
cdatetime
time
p53
(S'\x12\x00\x00\x00\x00\x00'
p54
tp55
Rp56
sg10
S'1.11.12'
p57
sS'arriving_from_id'
p58
L1L
sS'_bus_number_cache'
p59
g2
((g3
g4
tp60
tp61
Rp62
(dp63
g9
L43L
sg10
S'1.11.12'
p64
sg12
L1L
sg13
g14
(S'\x07\xe0\x03\x0b\x13#3\x05nM'
p65
g17
tp66
Rp67
sg20
I01
sg21
g14
(S'\x07\xe0\x03\x0e\x12\x12\x19\n\xd7\xc7'
p68
g17
tp69
Rp70
sg25
Vimages/bus/main/volvo1.jpg
p71
sg27
g28
(g29
g30
Ntp72
Rp73
(dp74
g34
I00
sg35
g36
sbsg37
VAC
p75
sg39
Vniki-bus
p76
sbsg27
g28
(g29
g30
Ntp77
Rp78
(dp79
g34
I00
sg35
g36
sbsS'arriving_time'
p80
g53
(S'\x12\x14\x00\x00\x00\x00'
p81
tp82
Rp83
sS'depature_at_id'
p84
L4L
sS'id'
p85
L1L
sbtp86
a(g2
((g3
g4
tp87
tp88
Rp89
(dp90
g9
L43L
sg10
S'1.11.12'
p91
sg12
L1L
sg13
g14
(S'\x07\xe0\x03\x0b\x13#3\x05nM'
p92
g17
tp93
Rp94
sg20
I01
sg21
g14
(S'\x07\xe0\x03\x0e\x12\x12\x19\n\xd7\xc7'
p95
g17
tp96
Rp97
sg25
Vimages/bus/main/volvo1.jpg
p98
sg27
g28
(g29
g30
Ntp99
Rp100
(dp101
g34
I00
sg35
g36
sbsg37
VAC
p102
sg39
Vniki-bus
p103
sbg2
((g3
g41
tp104
tp105
Rp106
(dp107
g46
g47
(S'20.00'
p108
tp109
Rp110
sg51
L3L
sg52
g53
(S'\x12!\x00\x00\x00\x00'
p111
tp112
Rp113
sg10
S'1.11.12'
p114
sg58
L13L
sg59
g2
((g3
g4
tp115
tp116
Rp117
(dp118
g9
L50L
sg10
S'1.11.12'
p119
sg12
L3L
sg13
g14
(S'\x07\xe0\x03\x0e\x11\x07\x00\x0e\xc8\r'
p120
g17
tp121
Rp122
sg20
I01
sg21
g14
(S'\x07\xe0\x03\x0e\x12\x01\x06\t\xd7n'
p123
g17
tp124
Rp125
sg25
Vimages/bus/main/1662227372_v1.jpg
p126
sg27
g28
(g29
g30
Ntp127
Rp128
(dp129
g34
I00
sg35
g36
sbsg37
VNAC
p130
sg39
Vallen-travels3
p131
sbsg27
g28
(g29
g30
Ntp132
Rp133
(dp134
g34
I00
sg35
g36
sbsg80
g53
(S'\x12*\x00\x00\x00\x00'
p135
tp136
Rp137
sg84
L14L
sg85
L10L
sbtp138
aa(lp139
(g2
((g3
g4
tp140
tp141
Rp142
(dp143
g9
L43L
sg10
S'1.11.12'
p144
sg12
L1L
sg13
g14
(S'\x07\xe0\x03\x0b\x13#3\x05nM'
p145
g17
tp146
Rp147
sg20
I01
sg21
g14
(S'\x07\xe0\x03\x0e\x12\x12\x19\n\xd7\xc7'
p148
g17
tp149
Rp150
sg25
Vimages/bus/main/volvo1.jpg
p151
sg27
g28
(g29
g30
Ntp152
Rp153
(dp154
g34
I00
sg35
g36
sbsg37
VAC
p155
sg39
Vniki-bus
p156
sbg2
((g3
g41
tp157
tp158
Rp159
(dp160
g46
g47
(S'110.00'
p161
tp162
Rp163
sg51
L1L
sg52
g56
sg10
S'1.11.12'
p164
sg58
L1L
sg59
g2
((g3
g4
tp165
tp166
Rp167
(dp168
g9
L43L
sg10
S'1.11.12'
p169
sg12
L1L
sg13
g14
(S'\x07\xe0\x03\x0b\x13#3\x05nM'
p170
g17
tp171
Rp172
sg20
I01
sg21
g14
(S'\x07\xe0\x03\x0e\x12\x12\x19\n\xd7\xc7'
p173
g17
tp174
Rp175
sg25
Vimages/bus/main/volvo1.jpg
p176
sg27
g28
(g29
g30
Ntp177
Rp178
(dp179
g34
I00
sg35
g36
sbsg37
VAC
p180
sg39
Vniki-bus
p181
sbsg27
g78
sg80
g53
(S'\x12\x14\x00\x00\x00\x00'
p182
tp183
Rp184
sg84
L4L
sg85
L1L
sbtp185
a(g2
((g3
g4
tp186
tp187
Rp188
(dp189
g9
L50L
sg10
S'1.11.12'
p190
sg12
L3L
sg13
g14
(S'\x07\xe0\x03\x0e\x11\x07\x00\x0e\xc8\r'
p191
g17
tp192
Rp193
sg20
I01
sg21
g14
(S'\x07\xe0\x03\x0e\x12\x01\x06\t\xd7n'
p194
g17
tp195
Rp196
sg25
Vimages/bus/main/1662227372_v1.jpg
p197
sg27
g28
(g29
g30
Ntp198
Rp199
(dp200
g34
I00
sg35
g36
sbsg37
VNAC
p201
sg39
Vallen-travels3
p202
sbg2
((g3
g41
tp203
tp204
Rp205
(dp206
g46
g47
(S'5.00'
p207
tp208
Rp209
sg51
L3L
sg52
g113
sg10
S'1.11.12'
p210
sg58
L13L
sg59
g117
sg27
g133
sg80
g53
(S'\x12&\x00\x00\x00\x00'
p211
tp212
Rp213
sg84
L8L
sg85
L10L
sbtp214
a(g2
((g3
g4
tp215
tp216
Rp217
(dp218
g9
L50L
sg10
S'1.11.12'
p219
sg12
L3L
sg13
g14
(S'\x07\xe0\x03\x0e\x11\x07\x00\x0e\xc8\r'
p220
g17
tp221
Rp222
sg20
I01
sg21
g14
(S'\x07\xe0\x03\x0e\x12\x01\x06\t\xd7n'
p223
g17
tp224
Rp225
sg25
Vimages/bus/main/1662227372_v1.jpg
p226
sg27
g28
(g29
g30
Ntp227
Rp228
(dp229
g34
I00
sg35
g36
sbsg37
VNAC
p230
sg39
Vallen-travels3
p231
sbg2
((g3
g41
tp232
tp233
Rp234
(dp235
g46
g47
(S'12.00'
p236
tp237
Rp238
sg51
L4L
sg52
g53
(S'\x13\x00\x00\x00\x00\x00'
p239
tp240
Rp241
sg10
S'1.11.12'
p242
sg58
L8L
sg59
g2
((g3
g4
tp243
tp244
Rp245
(dp246
g9
L50L
sg10
S'1.11.12'
p247
sg12
L4L
sg13
g14
(S'\x07\xe0\x03\x0e\x11\x07\x00\x0e\xc8\r'
p248
g17
tp249
Rp250
sg20
I01
sg21
g14
(S'\x07\xe0\x03\x0e\x12\x01\x06\t\xd7n'
p251
g17
tp252
Rp253
sg25
Vimages/bus/main/1662227372_v1.jpg
p254
sg27
g28
(g29
g30
Ntp255
Rp256
(dp257
g34
I00
sg35
g36
sbsg37
VNAC
p258
sg39
Vmotwani-travels1
p259
sbsg27
g28
(g29
g30
Ntp260
Rp261
(dp262
g34
I00
sg35
g36
sbsg80
g53
(S'\x13\x04\x00\x00\x00\x00'
p263
tp264
Rp265
sg84
L14L
sg85
L12L
sbtp266
aa(lp267
(g2
((g3
g4
tp268
tp269
Rp270
(dp271
g9
L43L
sg10
S'1.11.12'
p272
sg12
L1L
sg13
g14
(S'\x07\xe0\x03\x0b\x13#3\x05nM'
p273
g17
tp274
Rp275
sg20
I01
sg21
g14
(S'\x07\xe0\x03\x0e\x12\x12\x19\n\xd7\xc7'
p276
g17
tp277
Rp278
sg25
Vimages/bus/main/volvo1.jpg
p279
sg27
g28
(g29
g30
Ntp280
Rp281
(dp282
g34
I00
sg35
g36
sbsg37
VAC
p283
sg39
Vniki-bus
p284
sbg2
((g3
g41
tp285
tp286
Rp287
(dp288
g46
g47
(S'60.00'
p289
tp290
Rp291
sg51
L1L
sg52
g53
(S'\x12\x00\x00\x00\x00\x00'
p292
tp293
Rp294
sg10
S'1.11.12'
p295
sg58
L1L
sg59
g2
((g3
g4
tp296
tp297
Rp298
(dp299
g9
L43L
sg10
S'1.11.12'
p300
sg12
L1L
sg13
g14
(S'\x07\xe0\x03\x0b\x13#3\x05nM'
p301
g17
tp302
Rp303
sg20
I01
sg21
g14
(S'\x07\xe0\x03\x0e\x12\x12\x19\n\xd7\xc7'
p304
g17
tp305
Rp306
sg25
Vimages/bus/main/volvo1.jpg
p307
sg27
g28
(g29
g30
Ntp308
Rp309
(dp310
g34
I00
sg35
g36
sbsg37
VAC
p311
sg39
Vniki-bus
p312
sbsg27
g28
(g29
g30
Ntp313
Rp314
(dp315
g34
I00
sg35
g36
sbsg80
g53
(S'\x12\x0f\x00\x00\x00\x00'
p316
tp317
Rp318
sg84
L3L
sg85
L1L
sbtp319
a(g2
((g3
g4
tp320
tp321
Rp322
(dp323
g9
L43L
sg10
S'1.11.12'
p324
sg12
L1L
sg13
g14
(S'\x07\xe0\x03\x0b\x13#3\x05nM'
p325
g17
tp326
Rp327
sg20
I01
sg21
g14
(S'\x07\xe0\x03\x0e\x12\x12\x19\n\xd7\xc7'
p328
g17
tp329
Rp330
sg25
Vimages/bus/main/volvo1.jpg
p331
sg27
g28
(g29
g30
Ntp332
Rp333
(dp334
g34
I00
sg35
g36
sbsg37
VAC
p335
sg39
Vniki-bus
p336
sbg2
((g3
g41
tp337
tp338
Rp339
(dp340
g46
g47
(S'200.00'
p341
tp342
Rp343
sg51
L2L
sg52
g53
(S'\x13\x03\x00\x00\x00\x00'
p344
tp345
Rp346
sg10
S'1.11.12'
p347
sg58
L12L
sg59
g2
((g3
g4
tp348
tp349
Rp350
(dp351
g9
L50L
sg10
S'1.11.12'
p352
sg12
L2L
sg13
g14
(S'\x07\xe0\x03\x0e\x11\x07\x00\x0e\xc8\r'
p353
g17
tp354
Rp355
sg20
I01
sg21
g14
(S'\x07\xe0\x03\x0e\x12\x01\x06\t\xd7n'
p356
g17
tp357
Rp358
sg25
Vimages/bus/main/1662227372_v1.jpg
p359
sg27
g28
(g29
g30
Ntp360
Rp361
(dp362
g34
I00
sg35
g36
sbsg37
VAC
p363
sg39
Vjyoti-travels
p364
sbsg27
g28
(g29
g30
Ntp365
Rp366
(dp367
g34
I00
sg35
g36
sbsg80
g53
(S'\x13\x07\x00\x00\x00\x00'
p368
tp369
Rp370
sg84
L10L
sg85
L7L
sbtp371
aa(lp372
(g2
((g3
g4
tp373
tp374
Rp375
(dp376
g9
L43L
sg10
S'1.11.12'
p377
sg12
L1L
sg13
g14
(S'\x07\xe0\x03\x0b\x13#3\x05nM'
p378
g17
tp379
Rp380
sg20
I01
sg21
g14
(S'\x07\xe0\x03\x0e\x12\x12\x19\n\xd7\xc7'
p381
g17
tp382
Rp383
sg25
Vimages/bus/main/volvo1.jpg
p384
sg27
g28
(g29
g30
Ntp385
Rp386
(dp387
g34
I00
sg35
g36
sbsg37
VAC
p388
sg39
Vniki-bus
p389
sbg2
((g3
g41
tp390
tp391
Rp392
(dp393
g46
g47
(S'30.00'
p394
tp395
Rp396
sg51
L1L
sg52
g294
sg10
S'1.11.12'
p397
sg58
L1L
sg59
g2
((g3
g4
tp398
tp399
Rp400
(dp401
g9
L43L
sg10
S'1.11.12'
p402
sg12
L1L
sg13
g14
(S'\x07\xe0\x03\x0b\x13#3\x05nM'
p403
g17
tp404
Rp405
sg20
I01
sg21
g14
(S'\x07\xe0\x03\x0e\x12\x12\x19\n\xd7\xc7'
p406
g17
tp407
Rp408
sg25
Vimages/bus/main/volvo1.jpg
p409
sg27
g28
(g29
g30
Ntp410
Rp411
(dp412
g34
I00
sg35
g36
sbsg37
VAC
p413
sg39
Vniki-bus
p414
sbsg27
g314
sg80
g53
(S'\x12\x05\x00\x00\x00\x00'
p415
tp416
Rp417
sg84
L2L
sg85
L1L
sbtp418
a(g2
((g3
g4
tp419
tp420
Rp421
(dp422
g9
L43L
sg10
S'1.11.12'
p423
sg12
L1L
sg13
g14
(S'\x07\xe0\x03\x0b\x13#3\x05nM'
p424
g17
tp425
Rp426
sg20
I01
sg21
g14
(S'\x07\xe0\x03\x0e\x12\x12\x19\n\xd7\xc7'
p427
g17
tp428
Rp429
sg25
Vimages/bus/main/volvo1.jpg
p430
sg27
g28
(g29
g30
Ntp431
Rp432
(dp433
g34
I00
sg35
g36
sbsg37
VAC
p434
sg39
Vniki-bus
p435
sbg2
((g3
g41
tp436
tp437
Rp438
(dp439
g46
g47
(S'700.00'
p440
tp441
Rp442
sg51
L2L
sg52
g53
(S'\x13\x00\x00\x00\x00\x00'
p443
tp444
Rp445
sg10
S'1.11.12'
p446
sg58
L11L
sg59
g2
((g3
g4
tp447
tp448
Rp449
(dp450
g9
L50L
sg10
S'1.11.12'
p451
sg12
L2L
sg13
g14
(S'\x07\xe0\x03\x0e\x11\x07\x00\x0e\xc8\r'
p452
g17
tp453
Rp454
sg20
I01
sg21
g14
(S'\x07\xe0\x03\x0e\x12\x01\x06\t\xd7n'
p455
g17
tp456
Rp457
sg25
Vimages/bus/main/1662227372_v1.jpg
p458
sg27
g28
(g29
g30
Ntp459
Rp460
(dp461
g34
I00
sg35
g36
sbsg37
VAC
p462
sg39
Vjyoti-travels
p463
sbsg27
g28
(g29
g30
Ntp464
Rp465
(dp466
g34
I00
sg35
g36
sbsg80
g53
(S'\x13\x07\x00\x00\x00\x00'
p467
tp468
Rp469
sg84
L10L
sg85
L6L
sbtp470
aa.