(lp0
(lp1
cdjango.db.models.base
model_unpickle
p2
((S'bus'
p3
S'Bus'
p4
tp5
tp6
Rp7
(dp8
S'fare'
p9
cdecimal
Decimal
p10
(S'300.00'
p11
tp12
Rp13
sS'depature_time'
p14
cdatetime
time
p15
(S'\x12\x00\x00\x00\x00\x00'
p16
tp17
Rp18
sS'_django_version'
p19
S'1.11.12'
p20
sS'arriving_time'
p21
g15
(S'\x12\x05\x00\x00\x00\x00'
p22
tp23
Rp24
sS'created_at'
p25
cdatetime
datetime
p26
(S'\x07\xe0\x03\x0b\x13#3\x05nM'
p27
cpytz
_UTC
p28
(tRp29
tp30
Rp31
sS'no_of_seats'
p32
L43L
sS'bus_number'
p33
L1L
sS'updated_at'
p34
g26
(S'\x07\xe0\x03\x0e\x12\x12\x19\n\xd7\xc7'
p35
g29
tp36
Rp37
sS'slug'
p38
Vniki-bus
p39
sS'is_active'
p40
I01
sS'image'
p41
Vimages/bus/main/volvo1.jpg
p42
sS'arriving_from_id'
p43
L1L
sS'depature_at_id'
p44
L2L
sS'_state'
p45
ccopy_reg
_reconstructor
p46
(cdjango.db.models.base
ModelState
p47
c__builtin__
object
p48
Ntp49
Rp50
(dp51
S'adding'
p52
I00
sS'db'
p53
S'default'
p54
sbsS'type'
p55
VAC
p56
sS'id'
p57
L1L
sbag2
((g3
g4
tp58
tp59
Rp60
(dp61
g9
g10
(S'300.00'
p62
tp63
Rp64
sg14
g15
(S'\x12\x05\x00\x00\x00\x00'
p65
tp66
Rp67
sg19
S'1.11.12'
p68
sg21
g15
(S'\x12\x0f\x00\x00\x00\x00'
p69
tp70
Rp71
sg25
g26
(S'\x07\xe0\x03\x0b\x13#3\x05nM'
p72
g29
tp73
Rp74
sg32
L43L
sg33
L1L
sg34
g26
(S'\x07\xe0\x03\x0e\x12\x12\x19\n\xd7\xc7'
p75
g29
tp76
Rp77
sg38
Vniki-bus1
p78
sg40
I01
sg41
Vimages/bus/main/volvo1.jpg
p79
sg43
L2L
sg44
L3L
sg45
g46
(g47
g48
Ntp80
Rp81
(dp82
g52
I00
sg53
g54
sbsg55
VAC
p83
sg57
L2L
sbag2
((g3
g4
tp84
tp85
Rp86
(dp87
g9
g10
(S'500.00'
p88
tp89
Rp90
sg14
g15
(S'\x13\x03\x00\x00\x00\x00'
p91
tp92
Rp93
sg19
S'1.11.12'
p94
sg21
g15
(S'\x13\x07\x00\x00\x00\x00'
p95
tp96
Rp97
sg25
g26
(S'\x07\xe0\x03\x0e\x11\x07\x00\x0e\xc8\r'
p98
g29
tp99
Rp100
sg32
L50L
sg33
L2L
sg34
g26
(S'\x07\xe0\x03\x0e\x12\x01\x06\t\xd7n'
p101
g29
tp102
Rp103
sg38
Vjyoti-travels1
p104
sg40
I01
sg41
Vimages/bus/main/1662227372_v1.jpg
p105
sg43
L12L
sg44
L10L
sg45
g46
(g47
g48
Ntp106
Rp107
(dp108
g52
I00
sg53
g54
sbsg55
VAC
p109
sg57
L7L
sbag2
((g3
g4
tp110
tp111
Rp112
(dp113
g9
g10
(S'500.00'
p114
tp115
Rp116
sg14
g15
(S'\x13\x07\x00\x00\x00\x00'
p117
tp118
Rp119
sg19
S'1.11.12'
p120
sg21
g15
(S'\x13\x0f\x00\x00\x00\x00'
p121
tp122
Rp123
sg25
g26
(S'\x07\xe0\x03\x0e\x11\x07\x00\x0e\xc8\r'
p124
g29
tp125
Rp126
sg32
L50L
sg33
L2L
sg34
g26
(S'\x07\xe0\x03\x0e\x12\x01\x06\t\xd7n'
p127
g29
tp128
Rp129
sg38
Vjyoti-travels2
p130
sg40
I01
sg41
Vimages/bus/main/1662227372_v1.jpg
p131
sg43
L10L
sg44
L9L
sg45
g46
(g47
g48
Ntp132
Rp133
(dp134
g52
I00
sg53
g54
sbsg55
VAC
p135
sg57
L8L
sbaa(lp136
g7
ag2
((g3
g4
tp137
tp138
Rp139
(dp140
g9
g10
(S'500.00'
p141
tp142
Rp143
sg14
g15
(S'\x13\x00\x00\x00\x00\x00'
p144
tp145
Rp146
sg19
S'1.11.12'
p147
sg21
g15
(S'\x13\x03\x00\x00\x00\x00'
p148
tp149
Rp150
sg25
g26
(S'\x07\xe0\x03\x0e\x11\x07\x00\x0e\xc8\r'
p151
g29
tp152
Rp153
sg32
L50L
sg33
L2L
sg34
g26
(S'\x07\xe0\x03\x0e\x12\x01\x06\t\xd7n'
p154
g29
tp155
Rp156
sg38
Vjyoti-travels
p157
sg40
I01
sg41
Vimages/bus/main/1662227372_v1.jpg
p158
sg43
L11L
sg44
L12L
sg45
g46
(g47
g48
Ntp159
Rp160
(dp161
g52
I00
sg53
g54
sbsg55
VAC
p162
sg57
L6L
sbag86
ag112
aa(lp163
g2
((g3
g4
tp164
tp165
Rp166
(dp167
g9
g10
(S'300.00'
p168
tp169
Rp170
sg14
g15
(S'\x12\x00\x00\x00\x00\x00'
p171
tp172
Rp173
sg19
S'1.11.12'
p174
sg21
g15
(S'\x12\x05\x00\x00\x00\x00'
p175
tp176
Rp177
sg25
g26
(S'\x07\xe0\x03\x0b\x13#3\x05nM'
p178
g29
tp179
Rp180
sg32
L43L
sg33
L1L
sg34
g26
(S'\x07\xe0\x03\x0e\x12\x12\x19\n\xd7\xc7'
p181
g29
tp182
Rp183
sg38
Vniki-bus
p184
sg40
I01
sg41
Vimages/bus/main/volvo1.jpg
p185
sg43
L1L
sg44
L2L
sg45
g46
(g47
g48
Ntp186
Rp187
(dp188
g52
I00
sg53
g54
sbsg55
VAC
p189
sg57
L1L
sbag2
((g3
g4
tp190
tp191
Rp192
(dp193
g9
g10
(S'300.00'
p194
tp195
Rp196
sg14
g15
(S'\x12\x05\x00\x00\x00\x00'
p197
tp198
Rp199
sg19
S'1.11.12'
p200
sg21
g15
(S'\x12\x0f\x00\x00\x00\x00'
p201
tp202
Rp203
sg25
g26
(S'\x07\xe0\x03\x0b\x13#3\x05nM'
p204
g29
tp205
Rp206
sg32
L43L
sg33
L1L
sg34
g26
(S'\x07\xe0\x03\x0e\x12\x12\x19\n\xd7\xc7'
p207
g29
tp208
Rp209
sg38
Vniki-bus1
p210
sg40
I01
sg41
Vimages/bus/main/volvo1.jpg
p211
sg43
L2L
sg44
L3L
sg45
g46
(g47
g48
Ntp212
Rp213
(dp214
g52
I00
sg53
g54
sbsg55
VAC
p215
sg57
L2L
sbag2
((g3
g4
tp216
tp217
Rp218
(dp219
g9
g10
(S'300.00'
p220
tp221
Rp222
sg14
g15
(S'\x12\x0f\x00\x00\x00\x00'
p223
tp224
Rp225
sg19
S'1.11.12'
p226
sg21
g15
(S'\x12\x14\x00\x00\x00\x00'
p227
tp228
Rp229
sg25
g26
(S'\x07\xe0\x03\x0b\x13#3\x05nM'
p230
g29
tp231
Rp232
sg32
L43L
sg33
L1L
sg34
g26
(S'\x07\xe0\x03\x0e\x12\x12\x19\n\xd7\xc7'
p233
g29
tp234
Rp235
sg38
Vniki-bus2
p236
sg40
I01
sg41
Vimages/bus/main/volvo1.jpg
p237
sg43
L3L
sg44
L4L
sg45
g46
(g47
g48
Ntp238
Rp239
(dp240
g52
I00
sg53
g54
sbsg55
VAC
p241
sg57
L3L
sbag2
((g3
g4
tp242
tp243
Rp244
(dp245
g9
g10
(S'500.00'
p246
tp247
Rp248
sg14
g15
(S'\x12!\x00\x00\x00\x00'
p249
tp250
Rp251
sg19
S'1.11.12'
p252
sg21
g15
(S'\x12&\x00\x00\x00\x00'
p253
tp254
Rp255
sg25
g26
(S'\x07\xe0\x03\x0e\x11\x07\x00\x0e\xc8\r'
p256
g29
tp257
Rp258
sg32
L50L
sg33
L3L
sg34
g26
(S'\x07\xe0\x03\x0e\x12\x01\x06\t\xd7n'
p259
g29
tp260
Rp261
sg38
Vallen-travels4
p262
sg40
I01
sg41
Vimages/bus/main/1662227372_v1.jpg
p263
sg43
L13L
sg44
L8L
sg45
g46
(g47
g48
Ntp264
Rp265
(dp266
g52
I00
sg53
g54
sbsg55
VNAC
p267
sg57
L10L
sbag2
((g3
g4
tp268
tp269
Rp270
(dp271
g9
g10
(S'500.00'
p272
tp273
Rp274
sg14
g15
(S'\x12&\x00\x00\x00\x00'
p275
tp276
Rp277
sg19
S'1.11.12'
p278
sg21
g15
(S'\x12*\x00\x00\x00\x00'
p279
tp280
Rp281
sg25
g26
(S'\x07\xe0\x03\x0e\x11\x07\x00\x0e\xc8\r'
p282
g29
tp283
Rp284
sg32
L50L
sg33
L3L
sg34
g26
(S'\x07\xe0\x03\x0e\x12\x01\x06\t\xd7n'
p285
g29
tp286
Rp287
sg38
Vallen-travels5
p288
sg40
I01
sg41
Vimages/bus/main/1662227372_v1.jpg
p289
sg43
L8L
sg44
L14L
sg45
g46
(g47
g48
Ntp290
Rp291
(dp292
g52
I00
sg53
g54
sbsg55
VNAC
p293
sg57
L11L
sbag2
((g3
g4
tp294
tp295
Rp296
(dp297
g9
g10
(S'500.00'
p298
tp299
Rp300
sg14
g15
(S'\x13\x07\x00\x00\x00\x00'
p301
tp302
Rp303
sg19
S'1.11.12'
p304
sg21
g15
(S'\x13\x0f\x00\x00\x00\x00'
p305
tp306
Rp307
sg25
g26
(S'\x07\xe0\x03\x0e\x11\x07\x00\x0e\xc8\r'
p308
g29
tp309
Rp310
sg32
L50L
sg33
L2L
sg34
g26
(S'\x07\xe0\x03\x0e\x12\x01\x06\t\xd7n'
p311
g29
tp312
Rp313
sg38
Vjyoti-travels2
p314
sg40
I01
sg41
Vimages/bus/main/1662227372_v1.jpg
p315
sg43
L10L
sg44
L9L
sg45
g46
(g47
g48
Ntp316
Rp317
(dp318
g52
I00
sg53
g54
sbsg55
VAC
p319
sg57
L8L
sbaa(lp320
g166
ag192
ag218
ag244
ag2
((g3
g4
tp321
tp322
Rp323
(dp324
g9
g10
(S'500.00'
p325
tp326
Rp327
sg14
g15
(S'\x13\x00\x00\x00\x00\x00'
p328
tp329
Rp330
sg19
S'1.11.12'
p331
sg21
g15
(S'\x13\x04\x00\x00\x00\x00'
p332
tp333
Rp334
sg25
g26
(S'\x07\xe0\x03\x0e\x11\x07\x00\x0e\xc8\r'
p335
g29
tp336
Rp337
sg32
L50L
sg33
L4L
sg34
g26
(S'\x07\xe0\x03\x0e\x12\x01\x06\t\xd7n'
p338
g29
tp339
Rp340
sg38
Vmotwani-travels1
p341
sg40
I01
sg41
Vimages/bus/main/1662227372_v1.jpg
p342
sg43
L8L
sg44
L14L
sg45
g46
(g47
g48
Ntp343
Rp344
(dp345
g52
I00
sg53
g54
sbsg55
VNAC
p346
sg57
L12L
sbag296
aa.