(lp0
(lp1
(cdjango.db.models.base
model_unpickle
p2
((S'bus'
p3
S'Bus'
p4
tp5
tp6
Rp7
(dp8
S'no_of_seats'
p9
L43L
sS'_django_version'
p10
S'1.11.12'
p11
sS'bus_number'
p12
L1L
sS'created_at'
p13
cdatetime
datetime
p14
(S'\x07\xe0\x03\x0b\x13#3\x05nM'
p15
cpytz
_UTC
p16
(tRp17
tp18
Rp19
sS'is_active'
p20
I01
sS'updated_at'
p21
g14
(S'\x07\xe0\x03\x0e\x12\x12\x19\n\xd7\xc7'
p22
g17
tp23
Rp24
sS'image'
p25
Vimages/bus/main/volvo1.jpg
p26
sS'_state'
p27
ccopy_reg
_reconstructor
p28
(cdjango.db.models.base
ModelState
p29
c__builtin__
object
p30
Ntp31
Rp32
(dp33
S'adding'
p34
I00
sS'db'
p35
S'default'
p36
sbsS'type'
p37
VAC
p38
sS'slug'
p39
Vniki-bus
p40
sbg2
((g3
S'Bus_trip'
p41
tp42
tp43
Rp44
(dp45
S'fare'
p46
cdecimal
Decimal
p47
(S'110.00'
p48
tp49
Rp50
sS'bus_number_id'
p51
L1L
sS'depature_time'
p52
cdatetime
time
p53
(S'\x12\x00\x00\x00\x00\x00'
p54
tp55
Rp56
sg10
S'1.11.12'
p57
sS'arriving_from_id'
p58
L1L
sS'_bus_number_cache'
p59
g2
((g3
g4
tp60
tp61
Rp62
(dp63
g9
L43L
sg10
S'1.11.12'
p64
sg12
L1L
sg13
g14
(S'\x07\xe0\x03\x0b\x13#3\x05nM'
p65
g17
tp66
Rp67
sg20
I01
sg21
g14
(S'\x07\xe0\x03\x0e\x12\x12\x19\n\xd7\xc7'
p68
g17
tp69
Rp70
sg25
Vimages/bus/main/volvo1.jpg
p71
sg27
g28
(g29
g30
Ntp72
Rp73
(dp74
g34
I00
sg35
g36
sbsg37
VAC
p75
sg39
Vniki-bus
p76
sbsg27
g28
(g29
g30
Ntp77
Rp78
(dp79
g34
I00
sg35
g36
sbsS'arriving_time'
p80
g53
(S'\x12\x14\x00\x00\x00\x00'
p81
tp82
Rp83
sS'depature_at_id'
p84
L4L
sS'id'
p85
L1L
sbS''
p86
tp87
a(g2
((g3
g4
tp88
tp89
Rp90
(dp91
g9
L50L
sg10
S'1.11.12'
p92
sg12
L3L
sg13
g14
(S'\x07\xe0\x03\x0e\x11\x07\x00\x0e\xc8\r'
p93
g17
tp94
Rp95
sg20
I01
sg21
g14
(S'\x07\xe0\x03\x0e\x12\x01\x06\t\xd7n'
p96
g17
tp97
Rp98
sg25
Vimages/bus/main/1662227372_v1.jpg
p99
sg27
g28
(g29
g30
Ntp100
Rp101
(dp102
g34
I00
sg35
g36
sbsg37
VNAC
p103
sg39
Vallen-travels3
p104
sbg2
((g3
g41
tp105
tp106
Rp107
(dp108
g46
g47
(S'20.00'
p109
tp110
Rp111
sg51
L3L
sg52
g53
(S'\x12!\x00\x00\x00\x00'
p112
tp113
Rp114
sg10
S'1.11.12'
p115
sg58
L13L
sg59
g2
((g3
g4
tp116
tp117
Rp118
(dp119
g9
L50L
sg10
S'1.11.12'
p120
sg12
L3L
sg13
g14
(S'\x07\xe0\x03\x0e\x11\x07\x00\x0e\xc8\r'
p121
g17
tp122
Rp123
sg20
I01
sg21
g14
(S'\x07\xe0\x03\x0e\x12\x01\x06\t\xd7n'
p124
g17
tp125
Rp126
sg25
Vimages/bus/main/1662227372_v1.jpg
p127
sg27
g28
(g29
g30
Ntp128
Rp129
(dp130
g34
I00
sg35
g36
sbsg37
VNAC
p131
sg39
Vallen-travels3
p132
sbsg27
g28
(g29
g30
Ntp133
Rp134
(dp135
g34
I00
sg35
g36
sbsg80
g53
(S'\x12*\x00\x00\x00\x00'
p136
tp137
Rp138
sg84
L14L
sg85
L10L
sbg86
tp139
aa(lp140
(g2
((g3
g4
tp141
tp142
Rp143
(dp144
g9
L43L
sg10
S'1.11.12'
p145
sg12
L1L
sg13
g14
(S'\x07\xe0\x03\x0b\x13#3\x05nM'
p146
g17
tp147
Rp148
sg20
I01
sg21
g14
(S'\x07\xe0\x03\x0e\x12\x12\x19\n\xd7\xc7'
p149
g17
tp150
Rp151
sg25
Vimages/bus/main/volvo1.jpg
p152
sg27
g28
(g29
g30
Ntp153
Rp154
(dp155
g34
I00
sg35
g36
sbsg37
VAC
p156
sg39
Vniki-bus
p157
sbg2
((g3
g41
tp158
tp159
Rp160
(dp161
g46
g47
(S'110.00'
p162
tp163
Rp164
sg51
L1L
sg52
g56
sg10
S'1.11.12'
p165
sg58
L1L
sg59
g2
((g3
g4
tp166
tp167
Rp168
(dp169
g9
L43L
sg10
S'1.11.12'
p170
sg12
L1L
sg13
g14
(S'\x07\xe0\x03\x0b\x13#3\x05nM'
p171
g17
tp172
Rp173
sg20
I01
sg21
g14
(S'\x07\xe0\x03\x0e\x12\x12\x19\n\xd7\xc7'
p174
g17
tp175
Rp176
sg25
Vimages/bus/main/volvo1.jpg
p177
sg27
g28
(g29
g30
Ntp178
Rp179
(dp180
g34
I00
sg35
g36
sbsg37
VAC
p181
sg39
Vniki-bus
p182
sbsg27
g78
sg80
g53
(S'\x12\x14\x00\x00\x00\x00'
p183
tp184
Rp185
sg84
L4L
sg85
L1L
sbg86
tp186
a(g2
((g3
g4
tp187
tp188
Rp189
(dp190
g9
L50L
sg10
S'1.11.12'
p191
sg12
L3L
sg13
g14
(S'\x07\xe0\x03\x0e\x11\x07\x00\x0e\xc8\r'
p192
g17
tp193
Rp194
sg20
I01
sg21
g14
(S'\x07\xe0\x03\x0e\x12\x01\x06\t\xd7n'
p195
g17
tp196
Rp197
sg25
Vimages/bus/main/1662227372_v1.jpg
p198
sg27
g28
(g29
g30
Ntp199
Rp200
(dp201
g34
I00
sg35
g36
sbsg37
VNAC
p202
sg39
Vallen-travels3
p203
sbg2
((g3
g41
tp204
tp205
Rp206
(dp207
g46
g47
(S'5.00'
p208
tp209
Rp210
sg51
L3L
sg52
g114
sg10
S'1.11.12'
p211
sg58
L13L
sg59
g118
sg27
g134
sg80
g53
(S'\x12&\x00\x00\x00\x00'
p212
tp213
Rp214
sg84
L8L
sg85
L10L
sbg86
tp215
a(g2
((g3
g4
tp216
tp217
Rp218
(dp219
g9
L50L
sg10
S'1.11.12'
p220
sg12
L4L
sg13
g14
(S'\x07\xe0\x03\x0e\x11\x07\x00\x0e\xc8\r'
p221
g17
tp222
Rp223
sg20
I01
sg21
g14
(S'\x07\xe0\x03\x0e\x12\x01\x06\t\xd7n'
p224
g17
tp225
Rp226
sg25
Vimages/bus/main/1662227372_v1.jpg
p227
sg27
g28
(g29
g30
Ntp228
Rp229
(dp230
g34
I00
sg35
g36
sbsg37
VNAC
p231
sg39
Vmotwani-travels1
p232
sbg2
((g3
g41
tp233
tp234
Rp235
(dp236
g46
g47
(S'12.00'
p237
tp238
Rp239
sg51
L4L
sg52
g53
(S'\x13\x00\x00\x00\x00\x00'
p240
tp241
Rp242
sg10
S'1.11.12'
p243
sg58
L8L
sg59
g2
((g3
g4
tp244
tp245
Rp246
(dp247
g9
L50L
sg10
S'1.11.12'
p248
sg12
L4L
sg13
g14
(S'\x07\xe0\x03\x0e\x11\x07\x00\x0e\xc8\r'
p249
g17
tp250
Rp251
sg20
I01
sg21
g14
(S'\x07\xe0\x03\x0e\x12\x01\x06\t\xd7n'
p252
g17
tp253
Rp254
sg25
Vimages/bus/main/1662227372_v1.jpg
p255
sg27
g28
(g29
g30
Ntp256
Rp257
(dp258
g34
I00
sg35
g36
sbsg37
VNAC
p259
sg39
Vmotwani-travels1
p260
sbsg27
g28
(g29
g30
Ntp261
Rp262
(dp263
g34
I00
sg35
g36
sbsg80
g53
(S'\x13\x04\x00\x00\x00\x00'
p264
tp265
Rp266
sg84
L14L
sg85
L12L
sbg86
tp267
aa(lp268
(g2
((g3
g4
tp269
tp270
Rp271
(dp272
g9
L43L
sg10
S'1.11.12'
p273
sg12
L1L
sg13
g14
(S'\x07\xe0\x03\x0b\x13#3\x05nM'
p274
g17
tp275
Rp276
sg20
I01
sg21
g14
(S'\x07\xe0\x03\x0e\x12\x12\x19\n\xd7\xc7'
p277
g17
tp278
Rp279
sg25
Vimages/bus/main/volvo1.jpg
p280
sg27
g28
(g29
g30
Ntp281
Rp282
(dp283
g34
I00
sg35
g36
sbsg37
VAC
p284
sg39
Vniki-bus
p285
sbg2
((g3
g41
tp286
tp287
Rp288
(dp289
g46
g47
(S'30.00'
p290
tp291
Rp292
sg51
L1L
sg52
g56
sg10
S'1.11.12'
p293
sg58
L1L
sg59
g168
sg27
g78
sg80
g53
(S'\x12\x05\x00\x00\x00\x00'
p294
tp295
Rp296
sg84
L2L
sg85
L1L
sbg86
tp297
a(g2
((g3
g4
tp298
tp299
Rp300
(dp301
g9
L50L
sg10
S'1.11.12'
p302
sg12
L2L
sg13
g14
(S'\x07\xe0\x03\x0e\x11\x07\x00\x0e\xc8\r'
p303
g17
tp304
Rp305
sg20
I01
sg21
g14
(S'\x07\xe0\x03\x0e\x12\x01\x06\t\xd7n'
p306
g17
tp307
Rp308
sg25
Vimages/bus/main/1662227372_v1.jpg
p309
sg27
g28
(g29
g30
Ntp310
Rp311
(dp312
g34
I00
sg35
g36
sbsg37
VAC
p313
sg39
Vjyoti-travels
p314
sbg2
((g3
g41
tp315
tp316
Rp317
(dp318
g46
g47
(S'500.00'
p319
tp320
Rp321
sg51
L2L
sg52
g53
(S'\x13\x00\x00\x00\x00\x00'
p322
tp323
Rp324
sg10
S'1.11.12'
p325
sg58
L11L
sg59
g2
((g3
g4
tp326
tp327
Rp328
(dp329
g9
L50L
sg10
S'1.11.12'
p330
sg12
L2L
sg13
g14
(S'\x07\xe0\x03\x0e\x11\x07\x00\x0e\xc8\r'
p331
g17
tp332
Rp333
sg20
I01
sg21
g14
(S'\x07\xe0\x03\x0e\x12\x01\x06\t\xd7n'
p334
g17
tp335
Rp336
sg25
Vimages/bus/main/1662227372_v1.jpg
p337
sg27
g28
(g29
g30
Ntp338
Rp339
(dp340
g34
I00
sg35
g36
sbsg37
VAC
p341
sg39
Vjyoti-travels
p342
sbsg27
g28
(g29
g30
Ntp343
Rp344
(dp345
g34
I00
sg35
g36
sbsg80
g53
(S'\x13\x03\x00\x00\x00\x00'
p346
tp347
Rp348
sg84
L12L
sg85
L6L
sbg86
tp349
a(g2
((g3
g4
tp350
tp351
Rp352
(dp353
g9
L43L
sg10
S'1.11.12'
p354
sg12
L1L
sg13
g14
(S'\x07\xe0\x03\x0b\x13#3\x05nM'
p355
g17
tp356
Rp357
sg20
I01
sg21
g14
(S'\x07\xe0\x03\x0e\x12\x12\x19\n\xd7\xc7'
p358
g17
tp359
Rp360
sg25
Vimages/bus/main/volvo1.jpg
p361
sg27
g28
(g29
g30
Ntp362
Rp363
(dp364
g34
I00
sg35
g36
sbsg37
VAC
p365
sg39
Vniki-bus
p366
sbg2
((g3
g41
tp367
tp368
Rp369
(dp370
g46
g47
(S'50.00'
p371
tp372
Rp373
sg51
L1L
sg52
g53
(S'\x12\x0f\x00\x00\x00\x00'
p374
tp375
Rp376
sg10
S'1.11.12'
p377
sg58
L3L
sg59
g2
((g3
g4
tp378
tp379
Rp380
(dp381
g9
L43L
sg10
S'1.11.12'
p382
sg12
L1L
sg13
g14
(S'\x07\xe0\x03\x0b\x13#3\x05nM'
p383
g17
tp384
Rp385
sg20
I01
sg21
g14
(S'\x07\xe0\x03\x0e\x12\x12\x19\n\xd7\xc7'
p386
g17
tp387
Rp388
sg25
Vimages/bus/main/volvo1.jpg
p389
sg27
g28
(g29
g30
Ntp390
Rp391
(dp392
g34
I00
sg35
g36
sbsg37
VAC
p393
sg39
Vniki-bus
p394
sbsg27
g28
(g29
g30
Ntp395
Rp396
(dp397
g34
I00
sg35
g36
sbsg80
g53
(S'\x12\x14\x00\x00\x00\x00'
p398
tp399
Rp400
sg84
L4L
sg85
L3L
sbS'Next Day'
p401
tp402
a(g2
((g3
g4
tp403
tp404
Rp405
(dp406
g9
L50L
sg10
S'1.11.12'
p407
sg12
L3L
sg13
g14
(S'\x07\xe0\x03\x0e\x11\x07\x00\x0e\xc8\r'
p408
g17
tp409
Rp410
sg20
I01
sg21
g14
(S'\x07\xe0\x03\x0e\x12\x01\x06\t\xd7n'
p411
g17
tp412
Rp413
sg25
Vimages/bus/main/1662227372_v1.jpg
p414
sg27
g28
(g29
g30
Ntp415
Rp416
(dp417
g34
I00
sg35
g36
sbsg37
VNAC
p418
sg39
Vallen-travels3
p419
sbg2
((g3
g41
tp420
tp421
Rp422
(dp423
g46
g47
(S'20.00'
p424
tp425
Rp426
sg51
L3L
sg52
g114
sg10
S'1.11.12'
p427
sg58
L13L
sg59
g118
sg27
g134
sg80
g53
(S'\x12*\x00\x00\x00\x00'
p428
tp429
Rp430
sg84
L14L
sg85
L10L
sbg86
tp431
aa(lp432
(g2
((g3
g4
tp433
tp434
Rp435
(dp436
g9
L43L
sg10
S'1.11.12'
p437
sg12
L1L
sg13
g14
(S'\x07\xe0\x03\x0b\x13#3\x05nM'
p438
g17
tp439
Rp440
sg20
I01
sg21
g14
(S'\x07\xe0\x03\x0e\x12\x12\x19\n\xd7\xc7'
p441
g17
tp442
Rp443
sg25
Vimages/bus/main/volvo1.jpg
p444
sg27
g28
(g29
g30
Ntp445
Rp446
(dp447
g34
I00
sg35
g36
sbsg37
VAC
p448
sg39
Vniki-bus
p449
sbg2
((g3
g41
tp450
tp451
Rp452
(dp453
g46
g47
(S'30.00'
p454
tp455
Rp456
sg51
L1L
sg52
g56
sg10
S'1.11.12'
p457
sg58
L1L
sg59
g168
sg27
g78
sg80
g53
(S'\x12\x05\x00\x00\x00\x00'
p458
tp459
Rp460
sg84
L2L
sg85
L1L
sbg86
tp461
a(g2
((g3
g4
tp462
tp463
Rp464
(dp465
g9
L50L
sg10
S'1.11.12'
p466
sg12
L2L
sg13
g14
(S'\x07\xe0\x03\x0e\x11\x07\x00\x0e\xc8\r'
p467
g17
tp468
Rp469
sg20
I01
sg21
g14
(S'\x07\xe0\x03\x0e\x12\x01\x06\t\xd7n'
p470
g17
tp471
Rp472
sg25
Vimages/bus/main/1662227372_v1.jpg
p473
sg27
g28
(g29
g30
Ntp474
Rp475
(dp476
g34
I00
sg35
g36
sbsg37
VAC
p477
sg39
Vjyoti-travels
p478
sbg2
((g3
g41
tp479
tp480
Rp481
(dp482
g46
g321
sg51
L2L
sg52
g324
sg10
S'1.11.12'
p483
sg58
L11L
sg59
g328
sg27
g344
sg80
g348
sg84
L12L
sg85
L6L
sbg86
tp484
a(g2
((g3
g4
tp485
tp486
Rp487
(dp488
g9
L43L
sg10
S'1.11.12'
p489
sg12
L1L
sg13
g14
(S'\x07\xe0\x03\x0b\x13#3\x05nM'
p490
g17
tp491
Rp492
sg20
I01
sg21
g14
(S'\x07\xe0\x03\x0e\x12\x12\x19\n\xd7\xc7'
p493
g17
tp494
Rp495
sg25
Vimages/bus/main/volvo1.jpg
p496
sg27
g28
(g29
g30
Ntp497
Rp498
(dp499
g34
I00
sg35
g36
sbsg37
VAC
p500
sg39
Vniki-bus
p501
sbg2
((g3
g41
tp502
tp503
Rp504
(dp505
g46
g373
sg51
L1L
sg52
g376
sg10
S'1.11.12'
p506
sg58
L3L
sg59
g380
sg27
g396
sg80
g400
sg84
L4L
sg85
L3L
sbg401
tp507
a(g2
((g3
g4
tp508
tp509
Rp510
(dp511
g9
L50L
sg10
S'1.11.12'
p512
sg12
L3L
sg13
g14
(S'\x07\xe0\x03\x0e\x11\x07\x00\x0e\xc8\r'
p513
g17
tp514
Rp515
sg20
I01
sg21
g14
(S'\x07\xe0\x03\x0e\x12\x01\x06\t\xd7n'
p516
g17
tp517
Rp518
sg25
Vimages/bus/main/1662227372_v1.jpg
p519
sg27
g28
(g29
g30
Ntp520
Rp521
(dp522
g34
I00
sg35
g36
sbsg37
VNAC
p523
sg39
Vallen-travels3
p524
sbg2
((g3
g41
tp525
tp526
Rp527
(dp528
g46
g210
sg51
L3L
sg52
g114
sg10
S'1.11.12'
p529
sg58
L13L
sg59
g118
sg27
g134
sg80
g214
sg84
L8L
sg85
L10L
sbg86
tp530
a(g2
((g3
g4
tp531
tp532
Rp533
(dp534
g9
L50L
sg10
S'1.11.12'
p535
sg12
L4L
sg13
g14
(S'\x07\xe0\x03\x0e\x11\x07\x00\x0e\xc8\r'
p536
g17
tp537
Rp538
sg20
I01
sg21
g14
(S'\x07\xe0\x03\x0e\x12\x01\x06\t\xd7n'
p539
g17
tp540
Rp541
sg25
Vimages/bus/main/1662227372_v1.jpg
p542
sg27
g28
(g29
g30
Ntp543
Rp544
(dp545
g34
I00
sg35
g36
sbsg37
VNAC
p546
sg39
Vmotwani-travels1
p547
sbg2
((g3
g41
tp548
tp549
Rp550
(dp551
g46
g239
sg51
L4L
sg52
g242
sg10
S'1.11.12'
p552
sg58
L8L
sg59
g246
sg27
g262
sg80
g266
sg84
L14L
sg85
L12L
sbg86
tp553
aa(lp554
(g2
((g3
g4
tp555
tp556
Rp557
(dp558
g9
L43L
sg10
S'1.11.12'
p559
sg12
L1L
sg13
g14
(S'\x07\xe0\x03\x0b\x13#3\x05nM'
p560
g17
tp561
Rp562
sg20
I01
sg21
g14
(S'\x07\xe0\x03\x0e\x12\x12\x19\n\xd7\xc7'
p563
g17
tp564
Rp565
sg25
Vimages/bus/main/volvo1.jpg
p566
sg27
g28
(g29
g30
Ntp567
Rp568
(dp569
g34
I00
sg35
g36
sbsg37
VAC
p570
sg39
Vniki-bus
p571
sbg2
((g3
g41
tp572
tp573
Rp574
(dp575
g46
g47
(S'60.00'
p576
tp577
Rp578
sg51
L1L
sg52
g53
(S'\x12\x00\x00\x00\x00\x00'
p579
tp580
Rp581
sg10
S'1.11.12'
p582
sg58
L1L
sg59
g2
((g3
g4
tp583
tp584
Rp585
(dp586
g9
L43L
sg10
S'1.11.12'
p587
sg12
L1L
sg13
g14
(S'\x07\xe0\x03\x0b\x13#3\x05nM'
p588
g17
tp589
Rp590
sg20
I01
sg21
g14
(S'\x07\xe0\x03\x0e\x12\x12\x19\n\xd7\xc7'
p591
g17
tp592
Rp593
sg25
Vimages/bus/main/volvo1.jpg
p594
sg27
g28
(g29
g30
Ntp595
Rp596
(dp597
g34
I00
sg35
g36
sbsg37
VAC
p598
sg39
Vniki-bus
p599
sbsg27
g28
(g29
g30
Ntp600
Rp601
(dp602
g34
I00
sg35
g36
sbsg80
g53
(S'\x12\x0f\x00\x00\x00\x00'
p603
tp604
Rp605
sg84
L3L
sg85
L1L
sbg86
tp606
a(g2
((g3
g4
tp607
tp608
Rp609
(dp610
g9
L50L
sg10
S'1.11.12'
p611
sg12
L2L
sg13
g14
(S'\x07\xe0\x03\x0e\x11\x07\x00\x0e\xc8\r'
p612
g17
tp613
Rp614
sg20
I01
sg21
g14
(S'\x07\xe0\x03\x0e\x12\x01\x06\t\xd7n'
p615
g17
tp616
Rp617
sg25
Vimages/bus/main/1662227372_v1.jpg
p618
sg27
g28
(g29
g30
Ntp619
Rp620
(dp621
g34
I00
sg35
g36
sbsg37
VAC
p622
sg39
Vjyoti-travels
p623
sbg2
((g3
g41
tp624
tp625
Rp626
(dp627
g46
g47
(S'200.00'
p628
tp629
Rp630
sg51
L2L
sg52
g53
(S'\x13\x03\x00\x00\x00\x00'
p631
tp632
Rp633
sg10
S'1.11.12'
p634
sg58
L12L
sg59
g2
((g3
g4
tp635
tp636
Rp637
(dp638
g9
L50L
sg10
S'1.11.12'
p639
sg12
L2L
sg13
g14
(S'\x07\xe0\x03\x0e\x11\x07\x00\x0e\xc8\r'
p640
g17
tp641
Rp642
sg20
I01
sg21
g14
(S'\x07\xe0\x03\x0e\x12\x01\x06\t\xd7n'
p643
g17
tp644
Rp645
sg25
Vimages/bus/main/1662227372_v1.jpg
p646
sg27
g28
(g29
g30
Ntp647
Rp648
(dp649
g34
I00
sg35
g36
sbsg37
VAC
p650
sg39
Vjyoti-travels
p651
sbsg27
g28
(g29
g30
Ntp652
Rp653
(dp654
g34
I00
sg35
g36
sbsg80
g53
(S'\x13\x07\x00\x00\x00\x00'
p655
tp656
Rp657
sg84
L10L
sg85
L7L
sbg86
tp658
aa(lp659
(g2
((g3
g4
tp660
tp661
Rp662
(dp663
g9
L43L
sg10
S'1.11.12'
p664
sg12
L1L
sg13
g14
(S'\x07\xe0\x03\x0b\x13#3\x05nM'
p665
g17
tp666
Rp667
sg20
I01
sg21
g14
(S'\x07\xe0\x03\x0e\x12\x12\x19\n\xd7\xc7'
p668
g17
tp669
Rp670
sg25
Vimages/bus/main/volvo1.jpg
p671
sg27
g28
(g29
g30
Ntp672
Rp673
(dp674
g34
I00
sg35
g36
sbsg37
VAC
p675
sg39
Vniki-bus
p676
sbg2
((g3
g41
tp677
tp678
Rp679
(dp680
g46
g47
(S'30.00'
p681
tp682
Rp683
sg51
L1L
sg52
g581
sg10
S'1.11.12'
p684
sg58
L1L
sg59
g2
((g3
g4
tp685
tp686
Rp687
(dp688
g9
L43L
sg10
S'1.11.12'
p689
sg12
L1L
sg13
g14
(S'\x07\xe0\x03\x0b\x13#3\x05nM'
p690
g17
tp691
Rp692
sg20
I01
sg21
g14
(S'\x07\xe0\x03\x0e\x12\x12\x19\n\xd7\xc7'
p693
g17
tp694
Rp695
sg25
Vimages/bus/main/volvo1.jpg
p696
sg27
g28
(g29
g30
Ntp697
Rp698
(dp699
g34
I00
sg35
g36
sbsg37
VAC
p700
sg39
Vniki-bus
p701
sbsg27
g601
sg80
g53
(S'\x12\x05\x00\x00\x00\x00'
p702
tp703
Rp704
sg84
L2L
sg85
L1L
sbg86
tp705
a(g2
((g3
g4
tp706
tp707
Rp708
(dp709
g9
L50L
sg10
S'1.11.12'
p710
sg12
L2L
sg13
g14
(S'\x07\xe0\x03\x0e\x11\x07\x00\x0e\xc8\r'
p711
g17
tp712
Rp713
sg20
I01
sg21
g14
(S'\x07\xe0\x03\x0e\x12\x01\x06\t\xd7n'
p714
g17
tp715
Rp716
sg25
Vimages/bus/main/1662227372_v1.jpg
p717
sg27
g28
(g29
g30
Ntp718
Rp719
(dp720
g34
I00
sg35
g36
sbsg37
VAC
p721
sg39
Vjyoti-travels
p722
sbg2
((g3
g41
tp723
tp724
Rp725
(dp726
g46
g47
(S'700.00'
p727
tp728
Rp729
sg51
L2L
sg52
g53
(S'\x13\x00\x00\x00\x00\x00'
p730
tp731
Rp732
sg10
S'1.11.12'
p733
sg58
L11L
sg59
g2
((g3
g4
tp734
tp735
Rp736
(dp737
g9
L50L
sg10
S'1.11.12'
p738
sg12
L2L
sg13
g14
(S'\x07\xe0\x03\x0e\x11\x07\x00\x0e\xc8\r'
p739
g17
tp740
Rp741
sg20
I01
sg21
g14
(S'\x07\xe0\x03\x0e\x12\x01\x06\t\xd7n'
p742
g17
tp743
Rp744
sg25
Vimages/bus/main/1662227372_v1.jpg
p745
sg27
g28
(g29
g30
Ntp746
Rp747
(dp748
g34
I00
sg35
g36
sbsg37
VAC
p749
sg39
Vjyoti-travels
p750
sbsg27
g28
(g29
g30
Ntp751
Rp752
(dp753
g34
I00
sg35
g36
sbsg80
g53
(S'\x13\x07\x00\x00\x00\x00'
p754
tp755
Rp756
sg84
L10L
sg85
L6L
sbg86
tp757
aa.