(lp0
(lp1
cdjango.db.models.base
model_unpickle
p2
((S'bus'
p3
S'Bus'
p4
tp5
tp6
Rp7
(dp8
S'fare'
p9
cdecimal
Decimal
p10
(S'60.00'
p11
tp12
Rp13
sS'depature_time'
p14
cdatetime
time
p15
(S'\x12\x00\x00\x00\x00\x00'
p16
tp17
Rp18
sS'arriving_from_id'
p19
L1L
sS'image'
p20
Vimages/bus/main/volvo1.jpg
p21
sS'is_active'
p22
I01
sS'updated_at'
p23
cdatetime
datetime
p24
(S'\x07\xe0\x03\x0e\x12\x12\x19\n\xd7\xc7'
p25
cpytz
_UTC
p26
(tRp27
tp28
Rp29
sS'_state'
p30
ccopy_reg
_reconstructor
p31
(cdjango.db.models.base
ModelState
p32
c__builtin__
object
p33
Ntp34
Rp35
(dp36
S'adding'
p37
I00
sS'db'
p38
S'default'
p39
sbsS'slug'
p40
Vniki-bus
p41
sS'no_of_seats'
p42
L43L
sS'_django_version'
p43
S'1.11.12'
p44
sS'arriving_time'
p45
g15
(S'\x12\x0f\x00\x00\x00\x00'
p46
tp47
Rp48
sS'created_at'
p49
g24
(S'\x07\xe0\x03\x0b\x13#3\x05nM'
p50
g27
tp51
Rp52
sS'bus_number'
p53
L1L
sS'id'
p54
L1L
sS'depature_at_id'
p55
L3L
sS'type'
p56
VAC
p57
sbag2
((g3
g4
tp58
tp59
Rp60
(dp61
g9
g10
(S'500.00'
p62
tp63
Rp64
sg14
g15
(S'\x13\x03\x00\x00\x00\x00'
p65
tp66
Rp67
sg19
L12L
sg20
Vimages/bus/main/1662227372_v1.jpg
p68
sg22
I01
sg23
g24
(S'\x07\xe0\x03\x0e\x12\x01\x06\t\xd7n'
p69
g27
tp70
Rp71
sg30
g31
(g32
g33
Ntp72
Rp73
(dp74
g37
I00
sg38
g39
sbsg40
Vjyoti-travels1
p75
sg42
L50L
sg43
S'1.11.12'
p76
sg45
g15
(S'\x13\x0f\x00\x00\x00\x00'
p77
tp78
Rp79
sg49
g24
(S'\x07\xe0\x03\x0e\x11\x07\x00\x0e\xc8\r'
p80
g27
tp81
Rp82
sg53
L2L
sg54
L7L
sg55
L9L
sg56
VAC
p83
sbaa(lp84
g2
((g3
g4
tp85
tp86
Rp87
(dp88
g9
g10
(S'30.00'
p89
tp90
Rp91
sg14
g18
sg19
L1L
sg20
g21
sg22
I01
sg23
g29
sg30
g35
sg40
g41
sg42
L43L
sg43
S'1.11.12'
p92
sg45
g15
(S'\x12\x05\x00\x00\x00\x00'
p93
tp94
Rp95
sg49
g52
sg53
L1L
sg54
L1L
sg55
L2L
sg56
g57
sbag2
((g3
g4
tp96
tp97
Rp98
(dp99
g9
g10
(S'1000.00'
p100
tp101
Rp102
sg14
g15
(S'\x13\x00\x00\x00\x00\x00'
p103
tp104
Rp105
sg19
L11L
sg20
Vimages/bus/main/1662227372_v1.jpg
p106
sg22
I01
sg23
g24
(S'\x07\xe0\x03\x0e\x12\x01\x06\t\xd7n'
p107
g27
tp108
Rp109
sg30
g31
(g32
g33
Ntp110
Rp111
(dp112
g37
I00
sg38
g39
sbsg40
Vjyoti-travels
p113
sg42
L50L
sg43
S'1.11.12'
p114
sg45
g15
(S'\x13\x0f\x00\x00\x00\x00'
p115
tp116
Rp117
sg49
g24
(S'\x07\xe0\x03\x0e\x11\x07\x00\x0e\xc8\r'
p118
g27
tp119
Rp120
sg53
L2L
sg54
L6L
sg55
L9L
sg56
VAC
p121
sbaa(lp122
g2
((g3
g4
tp123
tp124
Rp125
(dp126
g9
g10
(S'110.00'
p127
tp128
Rp129
sg14
g15
(S'\x12\x00\x00\x00\x00\x00'
p130
tp131
Rp132
sg19
L1L
sg20
Vimages/bus/main/volvo1.jpg
p133
sg22
I01
sg23
g24
(S'\x07\xe0\x03\x0e\x12\x12\x19\n\xd7\xc7'
p134
g27
tp135
Rp136
sg30
g31
(g32
g33
Ntp137
Rp138
(dp139
g37
I00
sg38
g39
sbsg40
Vniki-bus
p140
sg42
L43L
sg43
S'1.11.12'
p141
sg45
g15
(S'\x12\x14\x00\x00\x00\x00'
p142
tp143
Rp144
sg49
g24
(S'\x07\xe0\x03\x0b\x13#3\x05nM'
p145
g27
tp146
Rp147
sg53
L1L
sg54
L1L
sg55
L4L
sg56
VAC
p148
sbag2
((g3
g4
tp149
tp150
Rp151
(dp152
g9
g10
(S'20.00'
p153
tp154
Rp155
sg14
g15
(S'\x12!\x00\x00\x00\x00'
p156
tp157
Rp158
sg19
L13L
sg20
Vimages/bus/main/1662227372_v1.jpg
p159
sg22
I01
sg23
g24
(S'\x07\xe0\x03\x0e\x12\x01\x06\t\xd7n'
p160
g27
tp161
Rp162
sg30
g31
(g32
g33
Ntp163
Rp164
(dp165
g37
I00
sg38
g39
sbsg40
Vallen-travels4
p166
sg42
L50L
sg43
S'1.11.12'
p167
sg45
g15
(S'\x12*\x00\x00\x00\x00'
p168
tp169
Rp170
sg49
g24
(S'\x07\xe0\x03\x0e\x11\x07\x00\x0e\xc8\r'
p171
g27
tp172
Rp173
sg53
L3L
sg54
L10L
sg55
L14L
sg56
VNAC
p174
sbag2
((g3
g4
tp175
tp176
Rp177
(dp178
g9
g10
(S'300.00'
p179
tp180
Rp181
sg14
g15
(S'\x13\x07\x00\x00\x00\x00'
p182
tp183
Rp184
sg19
L10L
sg20
Vimages/bus/main/1662227372_v1.jpg
p185
sg22
I01
sg23
g24
(S'\x07\xe0\x03\x0e\x12\x01\x06\t\xd7n'
p186
g27
tp187
Rp188
sg30
g31
(g32
g33
Ntp189
Rp190
(dp191
g37
I00
sg38
g39
sbsg40
Vjyoti-travels2
p192
sg42
L50L
sg43
S'1.11.12'
p193
sg45
g15
(S'\x13\x0f\x00\x00\x00\x00'
p194
tp195
Rp196
sg49
g24
(S'\x07\xe0\x03\x0e\x11\x07\x00\x0e\xc8\r'
p197
g27
tp198
Rp199
sg53
L2L
sg54
L8L
sg55
L9L
sg56
VAC
p200
sbaa(lp201
g2
((g3
g4
tp202
tp203
Rp204
(dp205
g9
g10
(S'110.00'
p206
tp207
Rp208
sg14
g132
sg19
L1L
sg20
g133
sg22
I01
sg23
g136
sg30
g138
sg40
g140
sg42
L43L
sg43
S'1.11.12'
p209
sg45
g15
(S'\x12\x14\x00\x00\x00\x00'
p210
tp211
Rp212
sg49
g147
sg53
L1L
sg54
L1L
sg55
L4L
sg56
g148
sbag2
((g3
g4
tp213
tp214
Rp215
(dp216
g9
g10
(S'5.00'
p217
tp218
Rp219
sg14
g158
sg19
L13L
sg20
g159
sg22
I01
sg23
g162
sg30
g164
sg40
g166
sg42
L50L
sg43
S'1.11.12'
p220
sg45
g15
(S'\x12&\x00\x00\x00\x00'
p221
tp222
Rp223
sg49
g173
sg53
L3L
sg54
L10L
sg55
L8L
sg56
g174
sbag2
((g3
g4
tp224
tp225
Rp226
(dp227
g9
g10
(S'12.00'
p228
tp229
Rp230
sg14
g15
(S'\x13\x00\x00\x00\x00\x00'
p231
tp232
Rp233
sg19
L8L
sg20
Vimages/bus/main/1662227372_v1.jpg
p234
sg22
I01
sg23
g24
(S'\x07\xe0\x03\x0e\x12\x01\x06\t\xd7n'
p235
g27
tp236
Rp237
sg30
g31
(g32
g33
Ntp238
Rp239
(dp240
g37
I00
sg38
g39
sbsg40
Vmotwani-travels1
p241
sg42
L50L
sg43
S'1.11.12'
p242
sg45
g15
(S'\x13\x04\x00\x00\x00\x00'
p243
tp244
Rp245
sg49
g24
(S'\x07\xe0\x03\x0e\x11\x07\x00\x0e\xc8\r'
p246
g27
tp247
Rp248
sg53
L4L
sg54
L12L
sg55
L14L
sg56
VNAC
p249
sbag2
((g3
g4
tp250
tp251
Rp252
(dp253
g9
g181
sg14
g184
sg19
L10L
sg20
g185
sg22
I01
sg23
g188
sg30
g190
sg40
g192
sg42
L50L
sg43
S'1.11.12'
p254
sg45
g196
sg49
g199
sg53
L2L
sg54
L8L
sg55
L9L
sg56
g200
sbaa.